target datalayout = "e-m:e-p270:32:32-p271:32:32-p272:64:64-i64:64-i128:128-f80:128-n8:16:32:64-S128"
target triple = "x86_64-unknown-linux-gnu"

%"class.llvh::FoldingSetBase" = type { ptr, ptr, i32, i32 }

@_ZTVN4llvh14FoldingSetBaseE = hidden unnamed_addr constant { [6 x ptr] } { [6 x ptr] [ptr null, ptr null, ptr @_ZN4llvh14FoldingSetBase6anchorEv, ptr @__cxa_pure_virtual, ptr @__cxa_pure_virtual, ptr @__cxa_pure_virtual] }, align 8
@.str = private unnamed_addr constant [18 x i8] c"Allocation failed\00", align 1

; Function Attrs: mustprogress nounwind uwtable
define linkonce_odr hidden noundef nonnull ptr @_ZN4llvh11safe_callocEmm(i64 noundef %Count, i64 noundef %Sz) #0 comdat {
entry:
  %Count.addr = alloca i64, align 8
  %Sz.addr = alloca i64, align 8
  %Result = alloca ptr, align 8
  store i64 %Count, ptr %Count.addr, align 8
  store i64 %Sz, ptr %Sz.addr, align 8
  %0 = load i64, ptr %Count.addr, align 8
  %1 = load i64, ptr %Sz.addr, align 8
  %call = call noalias ptr @calloc(i64 noundef %0, i64 noundef %1) #11
  store ptr %call, ptr %Result, align 8
  %2 = load ptr, ptr %Result, align 8
  %cmp = icmp eq ptr %2, null
  br i1 %cmp, label %if.then, label %if.end

if.then:                                          ; preds = %entry
  call void @_ZN4llvh22report_bad_alloc_errorEPKcb(ptr noundef @.str, i1 noundef zeroext true)
  br label %if.end

if.end:                                           ; preds = %if.then, %entry
  %3 = load ptr, ptr %Result, align 8
  ret ptr %3
}

; Function Attrs: mustprogress nounwind uwtable
define internal noundef ptr @_ZL15AllocateBucketsj(i32 noundef %NumBuckets) #0 {
entry:
  %NumBuckets.addr = alloca i32, align 4
  %Buckets = alloca ptr, align 8
  store i32 %NumBuckets, ptr %NumBuckets.addr, align 4
  %0 = load i32, ptr %NumBuckets.addr, align 4
  %add = add i32 %0, 1
  %conv = zext i32 %add to i64
  %call = call noundef nonnull ptr @_ZN4llvh11safe_callocEmm(i64 noundef %conv, i64 noundef 8)
  store ptr %call, ptr %Buckets, align 8
  %1 = load ptr, ptr %Buckets, align 8
  %2 = load i32, ptr %NumBuckets.addr, align 4
  %idxprom = zext i32 %2 to i64
  %arrayidx = getelementptr inbounds ptr, ptr %1, i64 %idxprom
  store ptr inttoptr (i64 -1 to ptr), ptr %arrayidx, align 8
  %3 = load ptr, ptr %Buckets, align 8
  ret ptr %3
}

; Function Attrs: mustprogress nounwind uwtable
define hidden void @_ZN4llvh14FoldingSetBaseC2Ej(ptr noundef nonnull align 8 dereferenceable(24) %this, i32 noundef %Log2InitSize) unnamed_addr #0 align 2 {
entry:
  %this.addr = alloca ptr, align 8
  %Log2InitSize.addr = alloca i32, align 4
  store ptr %this, ptr %this.addr, align 8
  store i32 %Log2InitSize, ptr %Log2InitSize.addr, align 4
  %this1 = load ptr, ptr %this.addr, align 8
  store ptr getelementptr inbounds ({ [6 x ptr] }, ptr @_ZTVN4llvh14FoldingSetBaseE, i32 0, i32 0, i32 2), ptr %this1, align 8
  %0 = load i32, ptr %Log2InitSize.addr, align 4
  %shl = shl i32 1, %0
  %NumBuckets = getelementptr inbounds %"class.llvh::FoldingSetBase", ptr %this1, i32 0, i32 2
  store i32 %shl, ptr %NumBuckets, align 8
  %NumBuckets2 = getelementptr inbounds %"class.llvh::FoldingSetBase", ptr %this1, i32 0, i32 2
  %1 = load i32, ptr %NumBuckets2, align 8
  %call = call noundef ptr @_ZL15AllocateBucketsj(i32 noundef %1)
  %Buckets = getelementptr inbounds %"class.llvh::FoldingSetBase", ptr %this1, i32 0, i32 1
  store ptr %call, ptr %Buckets, align 8
  %NumNodes = getelementptr inbounds %"class.llvh::FoldingSetBase", ptr %this1, i32 0, i32 3
  store i32 0, ptr %NumNodes, align 4
  ret void
}