; Function Attrs: mustprogress nounwind uwtable
define hidden void @_ZN4llvh14FoldingSetBaseC2Ej(ptr nocapture noundef nonnull writeonly align 8 dereferenceable(24) %this, i32 noundef %Log2InitSize) unnamed_addr #0 align 2 {
entry:
  store ptr getelementptr inbounds ({ [6 x ptr] }, ptr @_ZTVN4llvh14FoldingSetBaseE, i64 0, i32 0, i64 2), ptr %this, align 8
  %shl = shl nuw i32 1, %Log2InitSize
  %NumBuckets = getelementptr inbounds i8, ptr %this, i64 16
  store i32 %shl, ptr %NumBuckets, align 8
  %add.i = add nuw i32 %shl, 1
  %conv.i = zext i32 %add.i to i64
  %call.i.i = tail call noalias ptr @calloc(i64 noundef %conv.i, i64 noundef 8) #22
  %cmp.i.i = icmp eq ptr %call.i.i, null
  br i1 %cmp.i.i, label %if.then.i.i, label %_ZL15AllocateBucketsj.exit

if.then.i.i:                                      ; preds = %entry
  tail call void @_ZN4llvh22report_bad_alloc_errorEPKcb(ptr noundef nonnull @.str, i1 noundef zeroext true) #21
  br label %_ZL15AllocateBucketsj.exit

_ZL15AllocateBucketsj.exit:                       ; preds = %entry, %if.then.i.i
  %idxprom.i = zext i32 %shl to i64
  %arrayidx.i = getelementptr inbounds ptr, ptr %call.i.i, i64 %idxprom.i
  store ptr inttoptr (i64 -1 to ptr), ptr %arrayidx.i, align 8
  %Buckets = getelementptr inbounds i8, ptr %this, i64 8
  store ptr %call.i.i, ptr %Buckets, align 8
  %NumNodes = getelementptr inbounds i8, ptr %this, i64 20
  store i32 0, ptr %NumNodes, align 4
  ret void
}